target datalayout = "e-m:e-p270:32:32-p271:32:32-p272:64:64-i64:64-i128:128-f80:128-n8:16:32:64-S128"
target triple = "x86_64-pc-linux-gnu"

%class.Paintbox = type <{ %class.QWidget, %"class.Ui::Paintbox", i32, [4 x i8], %class.QHash, ptr, i32, [4 x i8], ptr, i8, [3 x i8], %class.QPoint, [4 x i8] }>
%class.QWidget = type { %class.QObject, %class.QPaintDevice, ptr }
%class.QObject = type { ptr, %class.QScopedPointer }
%class.QScopedPointer = type { ptr }
%class.QPaintDevice = type { ptr, i16, ptr }
%"class.Ui::Paintbox" = type { %class.Ui_Paintbox }
%class.Ui_Paintbox = type { ptr, ptr, ptr, ptr, ptr, ptr, ptr, ptr, ptr, ptr, ptr, ptr, ptr, ptr, ptr, ptr, ptr, ptr, ptr, ptr, ptr, ptr, ptr, ptr, ptr, ptr, ptr, ptr, ptr, ptr, ptr, ptr, ptr, ptr, ptr, ptr, ptr, ptr, ptr, ptr, ptr, ptr, ptr, ptr, ptr, ptr, ptr, ptr, ptr, ptr, ptr, ptr, ptr, ptr, ptr, ptr, ptr, ptr, ptr, ptr, ptr, ptr, ptr, ptr, ptr, ptr, ptr, ptr, ptr, ptr, ptr, ptr, ptr, ptr, ptr, ptr, ptr, ptr, ptr, ptr, ptr, ptr, ptr, ptr, ptr, ptr, ptr, ptr, ptr, ptr, ptr, ptr, ptr }
%class.QHash = type { %union.anon }
%union.anon = type { ptr }
%class.QPoint = type { i32, i32 }
%class.QSize = type { i32, i32 }
%class.QPixmap = type { %class.QPaintDevice, %class.QExplicitlySharedDataPointer }
%class.QExplicitlySharedDataPointer = type { ptr }
%class.QImage = type { %class.QPaintDevice, ptr }

; Function Attrs: mustprogress nounwind uwtable
define linkonce_odr noundef i32 @_Z6qAlphaj(i32 noundef %0) #3 comdat {
  %2 = alloca i32, align 4
  store i32 %0, ptr %2, align 4
  %3 = load i32, ptr %2, align 4
  %4 = lshr i32 %3, 24
  ret i32 %4
}

; Function Attrs: mustprogress nounwind uwtable
define linkonce_odr noundef i32 @_Z5qBluej(i32 noundef %0) #3 comdat {
  %2 = alloca i32, align 4
  store i32 %0, ptr %2, align 4
  %3 = load i32, ptr %2, align 4
  %4 = and i32 %3, 255
  ret i32 %4
}

; Function Attrs: mustprogress nounwind uwtable
define linkonce_odr noundef i32 @_Z6qGreenj(i32 noundef %0) #3 comdat {
  %2 = alloca i32, align 4
  store i32 %0, ptr %2, align 4
  %3 = load i32, ptr %2, align 4
  %4 = lshr i32 %3, 8
  %5 = and i32 %4, 255
  ret i32 %5
}

; Function Attrs: mustprogress nounwind uwtable
define linkonce_odr noundef i32 @_Z4qRedj(i32 noundef %0) #3 comdat {
  %2 = alloca i32, align 4
  store i32 %0, ptr %2, align 4
  %3 = load i32, ptr %2, align 4
  %4 = lshr i32 %3, 16
  %5 = and i32 %4, 255
  ret i32 %5
}

; Function Attrs: mustprogress nounwind uwtable
define linkonce_odr noundef i32 @_ZNK5QSize5widthEv(ptr noundef nonnull align 4 dereferenceable(8) %0) #3 comdat align 2 {
  %2 = alloca ptr, align 8
  store ptr %0, ptr %2, align 8
  %3 = load ptr, ptr %2, align 8
  %4 = getelementptr inbounds %class.QSize, ptr %3, i32 0, i32 0
  %5 = load i32, ptr %4, align 4
  ret i32 %5
}

; Function Attrs: mustprogress nounwind uwtable
define linkonce_odr noundef i32 @_ZNK5QSize6heightEv(ptr noundef nonnull align 4 dereferenceable(8) %0) #3 comdat align 2 {
  %2 = alloca ptr, align 8
  store ptr %0, ptr %2, align 8
  %3 = load ptr, ptr %2, align 8
  %4 = getelementptr inbounds %class.QSize, ptr %3, i32 0, i32 1
  %5 = load i32, ptr %4, align 4
  ret i32 %5
}

; Function Attrs: mustprogress uwtable
define void @_ZN8Paintbox15getPixmapBufferERPhRPfRiS4_(ptr noundef nonnull align 8 dereferenceable(844) %0, ptr noundef nonnull align 8 dereferenceable(8) %1, ptr noundef nonnull align 8 dereferenceable(8) %2, ptr noundef nonnull align 4 dereferenceable(4) %3, ptr noundef nonnull align 4 dereferenceable(4) %4) #0 align 2 personality ptr @__gxx_personality_v0 {
  %6 = alloca ptr, align 8
  %7 = alloca ptr, align 8
  %8 = alloca ptr, align 8
  %9 = alloca ptr, align 8
  %10 = alloca ptr, align 8
  %11 = alloca %class.QImage, align 8
  %12 = alloca %class.QPixmap, align 8
  %13 = alloca ptr, align 8
  %14 = alloca i32, align 4
  %15 = alloca %class.QSize, align 4
  %16 = alloca %class.QSize, align 4
  %17 = alloca %class.QSize, align 4
  %18 = alloca %class.QSize, align 4
  %19 = alloca i32, align 4
  %20 = alloca %class.QSize, align 4
  %21 = alloca i32, align 4
  %22 = alloca %class.QSize, align 4
  %23 = alloca i32, align 4
  %24 = alloca %class.QSize, align 4
  %25 = alloca %class.QSize, align 4
  %26 = alloca %class.QSize, align 4
  %27 = alloca %class.QSize, align 4
  %28 = alloca %class.QSize, align 4
  %29 = alloca %class.QSize, align 4
  %30 = alloca %class.QSize, align 4
  store ptr %0, ptr %6, align 8
  store ptr %1, ptr %7, align 8
  store ptr %2, ptr %8, align 8
  store ptr %3, ptr %9, align 8
  store ptr %4, ptr %10, align 8
  %31 = load ptr, ptr %6, align 8
  %32 = getelementptr inbounds %class.Paintbox, ptr %31, i32 0, i32 8
  %33 = load ptr, ptr %32, align 8
  call void @_ZNK19QGraphicsPixmapItem6pixmapEv(ptr dead_on_unwind writable sret(%class.QPixmap) align 8 %12, ptr noundef nonnull align 8 dereferenceable(16) %33)
  invoke void @_ZNK7QPixmap7toImageEv(ptr dead_on_unwind writable sret(%class.QImage) align 8 %11, ptr noundef nonnull align 8 dereferenceable(32) %12)
          to label %34 unwind label %164

34:                                               ; preds = %5
  call void @_ZN7QPixmapD1Ev(ptr noundef nonnull align 8 dereferenceable(32) %12) #12
  %35 = invoke i64 @_ZNK6QImage4sizeEv(ptr noundef nonnull align 8 dereferenceable(32) %11)
          to label %36 unwind label %168

36:                                               ; preds = %34
  store i64 %35, ptr %15, align 4
  %37 = call noundef i32 @_ZNK5QSize6heightEv(ptr noundef nonnull align 4 dereferenceable(8) %15) #12
  %38 = invoke i64 @_ZNK6QImage4sizeEv(ptr noundef nonnull align 8 dereferenceable(32) %11)
          to label %39 unwind label %168

39:                                               ; preds = %36
  store i64 %38, ptr %16, align 4
  %40 = call noundef i32 @_ZNK5QSize5widthEv(ptr noundef nonnull align 4 dereferenceable(8) %16) #12
  %41 = mul nsw i32 %37, %40
  %42 = mul nsw i32 %41, 4
  %43 = sext i32 %42 to i64
  %44 = invoke noalias noundef nonnull ptr @_Znam(i64 noundef %43) #13
          to label %45 unwind label %168

45:                                               ; preds = %39
  %46 = load ptr, ptr %7, align 8
  store ptr %44, ptr %46, align 8
  %47 = invoke i64 @_ZNK6QImage4sizeEv(ptr noundef nonnull align 8 dereferenceable(32) %11)
          to label %48 unwind label %168

48:                                               ; preds = %45
  store i64 %47, ptr %17, align 4
  %49 = call noundef i32 @_ZNK5QSize6heightEv(ptr noundef nonnull align 4 dereferenceable(8) %17) #12
  %50 = invoke i64 @_ZNK6QImage4sizeEv(ptr noundef nonnull align 8 dereferenceable(32) %11)
          to label %51 unwind label %168

51:                                               ; preds = %48
  store i64 %50, ptr %18, align 4
  %52 = call noundef i32 @_ZNK5QSize5widthEv(ptr noundef nonnull align 4 dereferenceable(8) %18) #12
  %53 = mul nsw i32 %49, %52
  %54 = sext i32 %53 to i64
  %55 = call { i64, i1 } @llvm.umul.with.overflow.i64(i64 %54, i64 4)
  %56 = extractvalue { i64, i1 } %55, 1
  %57 = extractvalue { i64, i1 } %55, 0
  %58 = select i1 %56, i64 -1, i64 %57
  %59 = invoke noalias noundef nonnull ptr @_Znam(i64 noundef %58) #13
          to label %60 unwind label %168

60:                                               ; preds = %51
  %61 = load ptr, ptr %8, align 8
  store ptr %59, ptr %61, align 8
  store i32 0, ptr %19, align 4
  br label %62

62:                                               ; preds = %173, %60
  %63 = load i32, ptr %19, align 4
  %64 = invoke i64 @_ZNK6QImage4sizeEv(ptr noundef nonnull align 8 dereferenceable(32) %11)
          to label %65 unwind label %168

65:                                               ; preds = %62
  store i64 %64, ptr %20, align 4
  %66 = call noundef i32 @_ZNK5QSize5widthEv(ptr noundef nonnull align 4 dereferenceable(8) %20) #12
  %67 = icmp slt i32 %63, %66
  br i1 %67, label %68, label %176

68:                                               ; preds = %65
  store i32 0, ptr %21, align 4
  br label %69

69:                                               ; preds = %161, %68
  %70 = load i32, ptr %21, align 4
  %71 = invoke i64 @_ZNK6QImage4sizeEv(ptr noundef nonnull align 8 dereferenceable(32) %11)
          to label %72 unwind label %168

72:                                               ; preds = %69
  store i64 %71, ptr %22, align 4
  %73 = call noundef i32 @_ZNK5QSize6heightEv(ptr noundef nonnull align 4 dereferenceable(8) %22) #12
  %74 = icmp slt i32 %70, %73
  br i1 %74, label %75, label %172

75:                                               ; preds = %72
  %76 = load i32, ptr %21, align 4
  %77 = invoke i64 @_ZNK6QImage4sizeEv(ptr noundef nonnull align 8 dereferenceable(32) %11)
          to label %78 unwind label %168

78:                                               ; preds = %75
  store i64 %77, ptr %24, align 4
  %79 = call noundef i32 @_ZNK5QSize5widthEv(ptr noundef nonnull align 4 dereferenceable(8) %24) #12
  %80 = mul nsw i32 %76, %79
  %81 = load i32, ptr %19, align 4
  %82 = add nsw i32 %80, %81
  store i32 %82, ptr %23, align 4
  %83 = load ptr, ptr %8, align 8
  %84 = load ptr, ptr %83, align 8
  %85 = load i32, ptr %23, align 4
  %86 = sext i32 %85 to i64
  %87 = getelementptr inbounds float, ptr %84, i64 %86
  store float 0.000000e+00, ptr %87, align 4
  %88 = load i32, ptr %23, align 4
  %89 = mul nsw i32 %88, 4
  store i32 %89, ptr %23, align 4
  %90 = load i32, ptr %19, align 4
  %91 = invoke i64 @_ZNK6QImage4sizeEv(ptr noundef nonnull align 8 dereferenceable(32) %11)
          to label %92 unwind label %168

92:                                               ; preds = %78
  store i64 %91, ptr %25, align 4
  %93 = call noundef i32 @_ZNK5QSize6heightEv(ptr noundef nonnull align 4 dereferenceable(8) %25) #12
  %94 = sub nsw i32 %93, 1
  %95 = load i32, ptr %21, align 4
  %96 = sub nsw i32 %94, %95
  %97 = invoke noundef i32 @_ZNK6QImage5pixelEii(ptr noundef nonnull align 8 dereferenceable(32) %11, i32 noundef %90, i32 noundef %96)
          to label %98 unwind label %168

98:                                               ; preds = %92
  %99 = invoke noundef i32 @_Z4qRedj(i32 noundef %97)
          to label %100 unwind label %168

100:                                              ; preds = %98
  %101 = trunc i32 %99 to i8
  %102 = load ptr, ptr %7, align 8
  %103 = load ptr, ptr %102, align 8
  %104 = load i32, ptr %23, align 4
  %105 = sext i32 %104 to i64
  %106 = getelementptr inbounds i8, ptr %103, i64 %105
  store i8 %101, ptr %106, align 1
  %107 = load i32, ptr %19, align 4
  %108 = invoke i64 @_ZNK6QImage4sizeEv(ptr noundef nonnull align 8 dereferenceable(32) %11)
          to label %109 unwind label %168

109:                                              ; preds = %100
  store i64 %108, ptr %26, align 4
  %110 = call noundef i32 @_ZNK5QSize6heightEv(ptr noundef nonnull align 4 dereferenceable(8) %26) #12
  %111 = sub nsw i32 %110, 1
  %112 = load i32, ptr %21, align 4
  %113 = sub nsw i32 %111, %112
  %114 = invoke noundef i32 @_ZNK6QImage5pixelEii(ptr noundef nonnull align 8 dereferenceable(32) %11, i32 noundef %107, i32 noundef %113)
          to label %115 unwind label %168

115:                                              ; preds = %109
  %116 = invoke noundef i32 @_Z6qGreenj(i32 noundef %114)
          to label %117 unwind label %168

117:                                              ; preds = %115
  %118 = trunc i32 %116 to i8
  %119 = load ptr, ptr %7, align 8
  %120 = load ptr, ptr %119, align 8
  %121 = load i32, ptr %23, align 4
  %122 = add nsw i32 %121, 1
  %123 = sext i32 %122 to i64
  %124 = getelementptr inbounds i8, ptr %120, i64 %123
  store i8 %118, ptr %124, align 1
  %125 = load i32, ptr %19, align 4
  %126 = invoke i64 @_ZNK6QImage4sizeEv(ptr noundef nonnull align 8 dereferenceable(32) %11)
          to label %127 unwind label %168

127:                                              ; preds = %117
  store i64 %126, ptr %27, align 4
  %128 = call noundef i32 @_ZNK5QSize6heightEv(ptr noundef nonnull align 4 dereferenceable(8) %27) #12
  %129 = sub nsw i32 %128, 1
  %130 = load i32, ptr %21, align 4
  %131 = sub nsw i32 %129, %130
  %132 = invoke noundef i32 @_ZNK6QImage5pixelEii(ptr noundef nonnull align 8 dereferenceable(32) %11, i32 noundef %125, i32 noundef %131)
          to label %133 unwind label %168

133:                                              ; preds = %127
  %134 = invoke noundef i32 @_Z5qBluej(i32 noundef %132)
          to label %135 unwind label %168

135:                                              ; preds = %133
  %136 = trunc i32 %134 to i8
  %137 = load ptr, ptr %7, align 8
  %138 = load ptr, ptr %137, align 8
  %139 = load i32, ptr %23, align 4
  %140 = add nsw i32 %139, 2
  %141 = sext i32 %140 to i64
  %142 = getelementptr inbounds i8, ptr %138, i64 %141
  store i8 %136, ptr %142, align 1
  %143 = load i32, ptr %19, align 4
  %144 = invoke i64 @_ZNK6QImage4sizeEv(ptr noundef nonnull align 8 dereferenceable(32) %11)
          to label %145 unwind label %168

145:                                              ; preds = %135
  store i64 %144, ptr %28, align 4
  %146 = call noundef i32 @_ZNK5QSize6heightEv(ptr noundef nonnull align 4 dereferenceable(8) %28) #12
  %147 = sub nsw i32 %146, 1
  %148 = load i32, ptr %21, align 4
  %149 = sub nsw i32 %147, %148
  %150 = invoke noundef i32 @_ZNK6QImage5pixelEii(ptr noundef nonnull align 8 dereferenceable(32) %11, i32 noundef %143, i32 noundef %149)
          to label %151 unwind label %168

151:                                              ; preds = %145
  %152 = invoke noundef i32 @_Z6qAlphaj(i32 noundef %150)
          to label %153 unwind label %168

153:                                              ; preds = %151
  %154 = trunc i32 %152 to i8
  %155 = load ptr, ptr %7, align 8
  %156 = load ptr, ptr %155, align 8
  %157 = load i32, ptr %23, align 4
  %158 = add nsw i32 %157, 3
  %159 = sext i32 %158 to i64
  %160 = getelementptr inbounds i8, ptr %156, i64 %159
  store i8 %154, ptr %160, align 1
  br label %161

161:                                              ; preds = %153
  %162 = load i32, ptr %21, align 4
  %163 = add nsw i32 %162, 1
  store i32 %163, ptr %21, align 4
  br label %69, !llvm.loop !8

164:                                              ; preds = %5
  %165 = landingpad { ptr, i32 }
          cleanup
  %166 = extractvalue { ptr, i32 } %165, 0
  store ptr %166, ptr %13, align 8
  %167 = extractvalue { ptr, i32 } %165, 1
  store i32 %167, ptr %14, align 4
  call void @_ZN7QPixmapD1Ev(ptr noundef nonnull align 8 dereferenceable(32) %12) #12
  br label %186

168:                                              ; preds = %178, %176, %151, %145, %135, %133, %127, %117, %115, %109, %100, %98, %92, %78, %75, %69, %62, %51, %48, %45, %39, %36, %34
  %169 = landingpad { ptr, i32 }
          cleanup
  %170 = extractvalue { ptr, i32 } %169, 0
  store ptr %170, ptr %13, align 8
  %171 = extractvalue { ptr, i32 } %169, 1
  store i32 %171, ptr %14, align 4
  call void @_ZN6QImageD1Ev(ptr noundef nonnull align 8 dereferenceable(32) %11) #12
  br label %186

172:                                              ; preds = %72
  br label %173

173:                                              ; preds = %172
  %174 = load i32, ptr %19, align 4
  %175 = add nsw i32 %174, 1
  store i32 %175, ptr %19, align 4
  br label %62, !llvm.loop !9

176:                                              ; preds = %65
  %177 = invoke i64 @_ZNK6QImage4sizeEv(ptr noundef nonnull align 8 dereferenceable(32) %11)
          to label %178 unwind label %168

178:                                              ; preds = %176
  store i64 %177, ptr %29, align 4
  %179 = call noundef i32 @_ZNK5QSize5widthEv(ptr noundef nonnull align 4 dereferenceable(8) %29) #12
  %180 = load ptr, ptr %9, align 8
  store i32 %179, ptr %180, align 4
  %181 = invoke i64 @_ZNK6QImage4sizeEv(ptr noundef nonnull align 8 dereferenceable(32) %11)
          to label %182 unwind label %168

182:                                              ; preds = %178
  store i64 %181, ptr %30, align 4
  %183 = call noundef i32 @_ZNK5QSize6heightEv(ptr noundef nonnull align 4 dereferenceable(8) %30) #12
  %184 = load ptr, ptr %10, align 8
  store i32 %183, ptr %184, align 4
  %185 = getelementptr inbounds %class.Paintbox, ptr %31, i32 0, i32 9
  store i8 0, ptr %185, align 8
  call void @_ZN6QImageD1Ev(ptr noundef nonnull align 8 dereferenceable(32) %11) #12
  ret void

186:                                              ; preds = %168, %164
  %187 = load ptr, ptr %13, align 8
  %188 = load i32, ptr %14, align 4
  %189 = insertvalue { ptr, i32 } poison, ptr %187, 0
  %190 = insertvalue { ptr, i32 } %189, i32 %188, 1
  resume { ptr, i32 } %190
}