; Function Attrs: mustprogress uwtable
define void @_ZN8Paintbox15getPixmapBufferERPhRPfRiS4_(ptr nocapture noundef nonnull align 8 dereferenceable(844) %0, ptr nocapture noundef nonnull align 8 dereferenceable(8) %1, ptr nocapture noundef nonnull align 8 dereferenceable(8) %2, ptr nocapture noundef nonnull writeonly align 4 dereferenceable(4) %3, ptr nocapture noundef nonnull writeonly align 4 dereferenceable(4) %4) local_unnamed_addr #0 align 2 personality ptr @__gxx_personality_v0 {
  %6 = alloca %class.QImage, align 8
  %7 = alloca %class.QPixmap, align 8
  %8 = getelementptr inbounds i8, ptr %0, i64 824
  %9 = load ptr, ptr %8, align 8
  call void @_ZNK19QGraphicsPixmapItem6pixmapEv(ptr dead_on_unwind nonnull writable sret(%class.QPixmap) align 8 %7, ptr noundef nonnull align 8 dereferenceable(16) %9)
  invoke void @_ZNK7QPixmap7toImageEv(ptr dead_on_unwind nonnull writable sret(%class.QImage) align 8 %6, ptr noundef nonnull align 8 dereferenceable(32) %7)
          to label %10 unwind label %91

10:                                               ; preds = %5
  call void @_ZN7QPixmapD1Ev(ptr noundef nonnull align 8 dereferenceable(32) %7) #18
  %11 = invoke i64 @_ZNK6QImage4sizeEv(ptr noundef nonnull align 8 dereferenceable(32) %6)
          to label %12 unwind label %.loopexit.split-lp.loopexit.split-lp

12:                                               ; preds = %10
  %13 = invoke i64 @_ZNK6QImage4sizeEv(ptr noundef nonnull align 8 dereferenceable(32) %6)
          to label %14 unwind label %.loopexit.split-lp.loopexit.split-lp

14:                                               ; preds = %12
  %sh.diff = lshr i64 %11, 30
  %15 = and i64 %sh.diff, 4294967292
  %16 = mul i64 %15, %13
  %sext = shl i64 %16, 32
  %17 = ashr exact i64 %sext, 32
  %18 = invoke noalias noundef nonnull ptr @_Znam(i64 noundef %17) #17
          to label %19 unwind label %.loopexit.split-lp.loopexit.split-lp

19:                                               ; preds = %14
  store ptr %18, ptr %1, align 8
  %20 = invoke i64 @_ZNK6QImage4sizeEv(ptr noundef nonnull align 8 dereferenceable(32) %6)
          to label %21 unwind label %.loopexit.split-lp.loopexit.split-lp

21:                                               ; preds = %19
  %22 = invoke i64 @_ZNK6QImage4sizeEv(ptr noundef nonnull align 8 dereferenceable(32) %6)
          to label %23 unwind label %.loopexit.split-lp.loopexit.split-lp

23:                                               ; preds = %21
  %.sroa.153.0.extract.shift = lshr i64 %20, 32
  %.sroa.153.0.extract.trunc = trunc i64 %.sroa.153.0.extract.shift to i32
  %.sroa.050.0.extract.trunc = trunc i64 %22 to i32
  %24 = mul nsw i32 %.sroa.050.0.extract.trunc, %.sroa.153.0.extract.trunc
  %25 = sext i32 %24 to i64
  %26 = icmp slt i32 %24, 0
  %27 = shl nsw i64 %25, 2
  %28 = select i1 %26, i64 -1, i64 %27
  %29 = invoke noalias noundef nonnull ptr @_Znam(i64 noundef %28) #17
          to label %30 unwind label %.loopexit.split-lp.loopexit.split-lp

30:                                               ; preds = %23
  store ptr %29, ptr %2, align 8
  br label %31

31:                                               ; preds = %93, %30
  %.031 = phi i32 [ 0, %30 ], [ %94, %93 ]
  %32 = invoke i64 @_ZNK6QImage4sizeEv(ptr noundef nonnull align 8 dereferenceable(32) %6)
          to label %33 unwind label %.loopexit.split-lp.loopexit

33:                                               ; preds = %31
  %.sroa.048.0.extract.trunc = trunc i64 %32 to i32
  %34 = icmp slt i32 %.031, %.sroa.048.0.extract.trunc
  br i1 %34, label %.preheader, label %95

.preheader:                                       ; preds = %33, %83
  %.0 = phi i32 [ %90, %83 ], [ 0, %33 ]
  %35 = invoke i64 @_ZNK6QImage4sizeEv(ptr noundef nonnull align 8 dereferenceable(32) %6)
          to label %36 unwind label %.loopexit

36:                                               ; preds = %.preheader
  %.sroa.147.0.extract.shift = lshr i64 %35, 32
  %.sroa.147.0.extract.trunc = trunc i64 %.sroa.147.0.extract.shift to i32
  %37 = icmp slt i32 %.0, %.sroa.147.0.extract.trunc
  br i1 %37, label %38, label %93

38:                                               ; preds = %36
  %39 = invoke i64 @_ZNK6QImage4sizeEv(ptr noundef nonnull align 8 dereferenceable(32) %6)
          to label %40 unwind label %.loopexit

40:                                               ; preds = %38
  %.sroa.044.0.extract.trunc = trunc i64 %39 to i32
  %41 = mul nsw i32 %.0, %.sroa.044.0.extract.trunc
  %42 = add nsw i32 %41, %.031
  %43 = load ptr, ptr %2, align 8
  %44 = sext i32 %42 to i64
  %45 = getelementptr inbounds float, ptr %43, i64 %44
  store float 0.000000e+00, ptr %45, align 4
  %46 = shl nsw i32 %42, 2
  %47 = invoke i64 @_ZNK6QImage4sizeEv(ptr noundef nonnull align 8 dereferenceable(32) %6)
          to label %48 unwind label %.loopexit

48:                                               ; preds = %40
  %.sroa.143.0.extract.shift = lshr i64 %47, 32
  %.sroa.143.0.extract.trunc = trunc i64 %.sroa.143.0.extract.shift to i32
  %49 = xor i32 %.0, -1
  %50 = add i32 %.sroa.143.0.extract.trunc, %49
  %51 = invoke noundef i32 @_ZNK6QImage5pixelEii(ptr noundef nonnull align 8 dereferenceable(32) %6, i32 noundef %.031, i32 noundef %50)
          to label %52 unwind label %.loopexit

52:                                               ; preds = %48
  %53 = lshr i32 %51, 16
  %54 = trunc i32 %53 to i8
  %55 = load ptr, ptr %1, align 8
  %56 = sext i32 %46 to i64
  %57 = getelementptr inbounds i8, ptr %55, i64 %56
  store i8 %54, ptr %57, align 1
  %58 = invoke i64 @_ZNK6QImage4sizeEv(ptr noundef nonnull align 8 dereferenceable(32) %6)
          to label %59 unwind label %.loopexit

59:                                               ; preds = %52
  %.sroa.141.0.extract.shift = lshr i64 %58, 32
  %.sroa.141.0.extract.trunc = trunc i64 %.sroa.141.0.extract.shift to i32
  %60 = add i32 %.sroa.141.0.extract.trunc, %49
  %61 = invoke noundef i32 @_ZNK6QImage5pixelEii(ptr noundef nonnull align 8 dereferenceable(32) %6, i32 noundef %.031, i32 noundef %60)
          to label %62 unwind label %.loopexit

62:                                               ; preds = %59
  %63 = lshr i32 %61, 8
  %64 = trunc i32 %63 to i8
  %65 = load ptr, ptr %1, align 8
  %66 = or disjoint i32 %46, 1
  %67 = sext i32 %66 to i64
  %68 = getelementptr inbounds i8, ptr %65, i64 %67
  store i8 %64, ptr %68, align 1
  %69 = invoke i64 @_ZNK6QImage4sizeEv(ptr noundef nonnull align 8 dereferenceable(32) %6)
          to label %70 unwind label %.loopexit

70:                                               ; preds = %62
  %.sroa.139.0.extract.shift = lshr i64 %69, 32
  %.sroa.139.0.extract.trunc = trunc i64 %.sroa.139.0.extract.shift to i32
  %71 = add i32 %.sroa.139.0.extract.trunc, %49
  %72 = invoke noundef i32 @_ZNK6QImage5pixelEii(ptr noundef nonnull align 8 dereferenceable(32) %6, i32 noundef %.031, i32 noundef %71)
          to label %73 unwind label %.loopexit

73:                                               ; preds = %70
  %74 = trunc i32 %72 to i8
  %75 = load ptr, ptr %1, align 8
  %76 = or disjoint i32 %46, 2
  %77 = sext i32 %76 to i64
  %78 = getelementptr inbounds i8, ptr %75, i64 %77
  store i8 %74, ptr %78, align 1
  %79 = invoke i64 @_ZNK6QImage4sizeEv(ptr noundef nonnull align 8 dereferenceable(32) %6)
          to label %80 unwind label %.loopexit

80:                                               ; preds = %73
  %.sroa.137.0.extract.shift = lshr i64 %79, 32
  %.sroa.137.0.extract.trunc = trunc i64 %.sroa.137.0.extract.shift to i32
  %81 = add i32 %.sroa.137.0.extract.trunc, %49
  %82 = invoke noundef i32 @_ZNK6QImage5pixelEii(ptr noundef nonnull align 8 dereferenceable(32) %6, i32 noundef %.031, i32 noundef %81)
          to label %83 unwind label %.loopexit

83:                                               ; preds = %80
  %84 = lshr i32 %82, 24
  %85 = trunc i32 %84 to i8
  %86 = load ptr, ptr %1, align 8
  %87 = or disjoint i32 %46, 3
  %88 = sext i32 %87 to i64
  %89 = getelementptr inbounds i8, ptr %86, i64 %88
  store i8 %85, ptr %89, align 1
  %90 = add nuw nsw i32 %.0, 1
  br label %.preheader, !llvm.loop !14

91:                                               ; preds = %5
  %92 = landingpad { ptr, i32 }
          cleanup
  call void @_ZN7QPixmapD1Ev(ptr noundef nonnull align 8 dereferenceable(32) %7) #18
  br label %101

.loopexit:                                        ; preds = %.preheader, %38, %40, %48, %52, %59, %62, %70, %73, %80
  %lpad.loopexit = landingpad { ptr, i32 }
          cleanup
  br label %.loopexit.split-lp

.loopexit.split-lp.loopexit:                      ; preds = %31
  %lpad.loopexit58 = landingpad { ptr, i32 }
          cleanup
  br label %.loopexit.split-lp

.loopexit.split-lp.loopexit.split-lp:             ; preds = %97, %95, %23, %21, %19, %14, %12, %10
  %lpad.loopexit.split-lp59 = landingpad { ptr, i32 }
          cleanup
  br label %.loopexit.split-lp

.loopexit.split-lp:                               ; preds = %.loopexit.split-lp.loopexit, %.loopexit.split-lp.loopexit.split-lp, %.loopexit
  %lpad.phi = phi { ptr, i32 } [ %lpad.loopexit, %.loopexit ], [ %lpad.loopexit58, %.loopexit.split-lp.loopexit ], [ %lpad.loopexit.split-lp59, %.loopexit.split-lp.loopexit.split-lp ]
  call void @_ZN6QImageD1Ev(ptr noundef nonnull align 8 dereferenceable(32) %6) #18
  br label %101

93:                                               ; preds = %36
  %94 = add nuw nsw i32 %.031, 1
  br label %31, !llvm.loop !15

95:                                               ; preds = %33
  %96 = invoke i64 @_ZNK6QImage4sizeEv(ptr noundef nonnull align 8 dereferenceable(32) %6)
          to label %97 unwind label %.loopexit.split-lp.loopexit.split-lp

97:                                               ; preds = %95
  %.sroa.035.0.extract.trunc = trunc i64 %96 to i32
  store i32 %.sroa.035.0.extract.trunc, ptr %3, align 4
  %98 = invoke i64 @_ZNK6QImage4sizeEv(ptr noundef nonnull align 8 dereferenceable(32) %6)
          to label %99 unwind label %.loopexit.split-lp.loopexit.split-lp

99:                                               ; preds = %97
  %.sroa.1.0.extract.shift = lshr i64 %98, 32
  %.sroa.1.0.extract.trunc = trunc i64 %.sroa.1.0.extract.shift to i32
  store i32 %.sroa.1.0.extract.trunc, ptr %4, align 4
  %100 = getelementptr inbounds i8, ptr %0, i64 832
  store i8 0, ptr %100, align 8
  call void @_ZN6QImageD1Ev(ptr noundef nonnull align 8 dereferenceable(32) %6) #18
  ret void

101:                                              ; preds = %.loopexit.split-lp, %91
  %.pn = phi { ptr, i32 } [ %lpad.phi, %.loopexit.split-lp ], [ %92, %91 ]
  resume { ptr, i32 } %.pn
}